; Function Attrs: nounwind uwtable
define dso_local void @boot_yyfree(ptr noundef %0, ptr noundef readnone captures(none) %1) local_unnamed_addr #0 {
  %.not = icmp eq ptr %0, null
  br i1 %.not, label %4, label %3

3:                                                ; preds = %2
  tail call void @pfree(ptr noundef nonnull %0) #15
  br label %4

4:                                                ; preds = %3, %2
  ret void
}